; ModuleID = '3/2572.c'
source_filename = "3/2572.c"
target datalayout = "e-m:e-p270:32:32-p271:32:32-p272:64:64-i64:64-f80:128-n8:16:32:64-S128"
target triple = "x86_64-pc-linux-gnu"

@.str = private unnamed_addr constant [6 x i8] c"%d %d\00", align 1
@.str.1 = private unnamed_addr constant [3 x i8] c"%d\00", align 1
@.str.2 = private unnamed_addr constant [4 x i8] c"yes\00", align 1
@.str.3 = private unnamed_addr constant [3 x i8] c"no\00", align 1

; Function Attrs: noinline nounwind uwtable
define dso_local i32 @main() #0 {
  %1 = alloca i32, align 4
  %2 = alloca i32, align 4
  %3 = alloca i32, align 4
  %4 = alloca i32, align 4
  %5 = alloca [1000 x i32], align 16
  %6 = alloca i32, align 4
  %7 = alloca [1000 x i32], align 16
  %8 = alloca i32, align 4
  store i32 0, i32* %1, align 4
  store i32 0, i32* %8, align 4
  %9 = call i32 (i8*, ...) @__isoc99_scanf(i8* getelementptr inbounds ([6 x i8], [6 x i8]* @.str, i64 0, i64 0), i32* %2, i32* %3)
  store i32 0, i32* %4, align 4
  br label %10

10:                                               ; preds = %26, %0
  %11 = load i32, i32* %4, align 4
  %12 = load i32, i32* %2, align 4
  %13 = icmp slt i32 %11, %12
  br i1 %13, label %14, label %29

14:                                               ; preds = %10
  %15 = load i32, i32* %4, align 4
  %16 = sext i32 %15 to i64
  %17 = getelementptr inbounds [1000 x i32], [1000 x i32]* %5, i64 0, i64 %16
  %18 = call i32 (i8*, ...) @__isoc99_scanf(i8* getelementptr inbounds ([3 x i8], [3 x i8]* @.str.1, i64 0, i64 0), i32* %17)
  %19 = load i32, i32* %4, align 4
  %20 = sext i32 %19 to i64
  %21 = getelementptr inbounds [1000 x i32], [1000 x i32]* %5, i64 0, i64 %20
  %22 = load i32, i32* %21, align 4
  %23 = load i32, i32* %4, align 4
  %24 = sext i32 %23 to i64
  %25 = getelementptr inbounds [1000 x i32], [1000 x i32]* %7, i64 0, i64 %24
  store i32 %22, i32* %25, align 4
  br label %26

26:                                               ; preds = %14
  %27 = load i32, i32* %4, align 4
  %28 = add nsw i32 %27, 1
  store i32 %28, i32* %4, align 4
  br label %10

29:                                               ; preds = %10
  store i32 0, i32* %4, align 4
  br label %30

30:                                               ; preds = %64, %29
  %31 = load i32, i32* %4, align 4
  %32 = load i32, i32* %2, align 4
  %33 = sub nsw i32 %32, 1
  %34 = icmp slt i32 %31, %33
  br i1 %34, label %35, label %67

35:                                               ; preds = %30
  %36 = load i32, i32* %4, align 4
  %37 = add nsw i32 %36, 1
  store i32 %37, i32* %6, align 4
  br label %38

38:                                               ; preds = %56, %35
  %39 = load i32, i32* %6, align 4
  %40 = load i32, i32* %2, align 4
  %41 = icmp slt i32 %39, %40
  br i1 %41, label %42, label %59

42:                                               ; preds = %38
  %43 = load i32, i32* %4, align 4
  %44 = sext i32 %43 to i64
  %45 = getelementptr inbounds [1000 x i32], [1000 x i32]* %5, i64 0, i64 %44
  %46 = load i32, i32* %45, align 4
  %47 = load i32, i32* %6, align 4
  %48 = sext i32 %47 to i64
  %49 = getelementptr inbounds [1000 x i32], [1000 x i32]* %7, i64 0, i64 %48
  %50 = load i32, i32* %49, align 4
  %51 = add nsw i32 %46, %50
  %52 = load i32, i32* %3, align 4
  %53 = icmp eq i32 %51, %52
  br i1 %53, label %54, label %55

54:                                               ; preds = %42
  store i32 1, i32* %8, align 4
  br label %59

55:                                               ; preds = %42
  br label %56

56:                                               ; preds = %55
  %57 = load i32, i32* %6, align 4
  %58 = add nsw i32 %57, 1
  store i32 %58, i32* %6, align 4
  br label %38

59:                                               ; preds = %54, %38
  %60 = load i32, i32* %8, align 4
  %61 = icmp eq i32 %60, 1
  br i1 %61, label %62, label %63

62:                                               ; preds = %59
  br label %67

63:                                               ; preds = %59
  br label %64

64:                                               ; preds = %63
  %65 = load i32, i32* %4, align 4
  %66 = add nsw i32 %65, 1
  store i32 %66, i32* %4, align 4
  br label %30

67:                                               ; preds = %62, %30
  %68 = load i32, i32* %8, align 4
  %69 = icmp eq i32 %68, 1
  br i1 %69, label %70, label %72

70:                                               ; preds = %67
  %71 = call i32 (i8*, ...) @printf(i8* getelementptr inbounds ([4 x i8], [4 x i8]* @.str.2, i64 0, i64 0))
  br label %74

72:                                               ; preds = %67
  %73 = call i32 (i8*, ...) @printf(i8* getelementptr inbounds ([3 x i8], [3 x i8]* @.str.3, i64 0, i64 0))
  br label %74

74:                                               ; preds = %72, %70
  ret i32 0
}

declare dso_local i32 @__isoc99_scanf(i8*, ...) #1

declare dso_local i32 @printf(i8*, ...) #1


!llvm.module.flags = !{!0}
!llvm.ident = !{!1}

!0 = !{i32 1, !"wchar_size", i32 4}
!1 = !{!"clang version 10.0.0-4ubuntu1 "}
